; ModuleID = 'bench/linux/original/zstd_common.ll'
source_filename = "bench/linux/original/zstd_common.ll"
target datalayout = "e-m:e-p270:32:32-p271:32:32-p272:64:64-i64:64-i128:128-f80:128-n8:16:32:64-S128"
target triple = "x86_64-unknown-linux-gnu"

%struct.ZSTD_customMem = type { ptr, ptr, ptr }

@.str = private unnamed_addr constant [6 x i8] c"1.5.2\00", align 1

; Function Attrs: fn_ret_thunk_extern mustprogress nofree norecurse nosync nounwind null_pointer_is_valid willreturn memory(none)
define dso_local noundef i32 @ZSTD_versionNumber() local_unnamed_addr #0 align 16 {
  ret i32 10502
}

; Function Attrs: fn_ret_thunk_extern mustprogress nofree norecurse nosync nounwind null_pointer_is_valid willreturn memory(none)
define dso_local noundef nonnull ptr @ZSTD_versionString() local_unnamed_addr #0 align 16 {
  ret ptr @.str
}

; Function Attrs: fn_ret_thunk_extern mustprogress nofree norecurse nosync nounwind null_pointer_is_valid willreturn memory(none)
define dso_local noundef i32 @ZSTD_isError(i64 noundef %0) local_unnamed_addr #0 align 16 {
  %2 = icmp ugt i64 %0, -120
  %3 = zext i1 %2 to i32
  ret i32 %3
}

; Function Attrs: fn_ret_thunk_extern nounwind null_pointer_is_valid
define dso_local ptr @ZSTD_getErrorName(i64 noundef %0) local_unnamed_addr #1 align 16 {
  %2 = icmp ult i64 %0, -119
  %3 = trunc i64 %0 to i32
  %4 = sub i32 0, %3
  %5 = select i1 %2, i32 0, i32 %4
  %6 = tail call ptr @ERR_getErrorString(i32 noundef %5) #4
  ret ptr %6
}

; Function Attrs: fn_ret_thunk_extern mustprogress nofree norecurse nosync nounwind null_pointer_is_valid willreturn memory(none)
define dso_local noundef i32 @ZSTD_getErrorCode(i64 noundef %0) local_unnamed_addr #0 align 16 {
  %2 = icmp ult i64 %0, -119
  %3 = trunc i64 %0 to i32
  %4 = sub i32 0, %3
  %5 = select i1 %2, i32 0, i32 %4
  ret i32 %5
}

; Function Attrs: fn_ret_thunk_extern nounwind null_pointer_is_valid
define dso_local ptr @ZSTD_getErrorString(i32 noundef %0) local_unnamed_addr #1 align 16 {
  %2 = tail call ptr @ERR_getErrorString(i32 noundef %0) #4
  ret ptr %2
}

; Function Attrs: null_pointer_is_valid
declare dso_local ptr @ERR_getErrorString(i32 noundef) local_unnamed_addr #2

; Function Attrs: fn_ret_thunk_extern nounwind null_pointer_is_valid
define dso_local ptr @ZSTD_customMalloc(i64 noundef %0, ptr nocapture noundef readonly byval(%struct.ZSTD_customMem) align 8 %1) local_unnamed_addr #1 align 16 {
  %3 = load ptr, ptr %1, align 8
  %4 = icmp eq ptr %3, null
  br i1 %4, label %9, label %5

5:                                                ; preds = %2
  %6 = getelementptr inbounds i8, ptr %1, i64 16
  %7 = load ptr, ptr %6, align 8
  %8 = tail call ptr %3(ptr noundef %7, i64 noundef %0) #4
  br label %9

9:                                                ; preds = %5, %2
  %10 = phi ptr [ %8, %5 ], [ null, %2 ]
  ret ptr %10
}

; Function Attrs: fn_ret_thunk_extern nounwind null_pointer_is_valid
define dso_local ptr @ZSTD_customCalloc(i64 noundef %0, ptr nocapture noundef readonly byval(%struct.ZSTD_customMem) align 8 %1) local_unnamed_addr #1 align 16 {
  %3 = load ptr, ptr %1, align 8
  %4 = icmp eq ptr %3, null
  br i1 %4, label %9, label %5

5:                                                ; preds = %2
  %6 = getelementptr inbounds i8, ptr %1, i64 16
  %7 = load ptr, ptr %6, align 8
  %8 = tail call ptr %3(ptr noundef %7, i64 noundef %0) #4
  tail call void @llvm.memset.p0.i64(ptr align 1 %8, i8 0, i64 %0, i1 false)
  br label %9

9:                                                ; preds = %5, %2
  %10 = phi ptr [ %8, %5 ], [ null, %2 ]
  ret ptr %10
}

; Function Attrs: mustprogress nocallback nofree nounwind willreturn memory(argmem: write)
declare void @llvm.memset.p0.i64(ptr nocapture writeonly, i8, i64, i1 immarg) #3

; Function Attrs: fn_ret_thunk_extern nounwind null_pointer_is_valid
define dso_local void @ZSTD_customFree(ptr noundef %0, ptr nocapture noundef readonly byval(%struct.ZSTD_customMem) align 8 %1) local_unnamed_addr #1 align 16 {
  %3 = icmp eq ptr %0, null
  br i1 %3, label %11, label %4

4:                                                ; preds = %2
  %5 = getelementptr inbounds i8, ptr %1, i64 8
  %6 = load ptr, ptr %5, align 8
  %7 = icmp eq ptr %6, null
  br i1 %7, label %11, label %8

8:                                                ; preds = %4
  %9 = getelementptr inbounds i8, ptr %1, i64 16
  %10 = load ptr, ptr %9, align 8
  tail call void %6(ptr noundef %10, ptr noundef nonnull %0) #4
  br label %11

11:                                               ; preds = %8, %4, %2
  ret void
}


!llvm.module.flags = !{!0, !1, !2, !3, !4}

!0 = !{i32 1, !"wchar_size", i32 2}
!1 = !{i32 8, !"cf-protection-branch", i32 1}
!2 = !{i32 4, !"function_return_thunk_extern", i32 1}
!3 = !{i32 4, !"indirect_branch_cs_prefix", i32 1}
!4 = !{i32 4, !"SkipRaxSetup", i32 1}
